
test/bootrom.elf:     file format elf32-littleriscv


Disassembly of section .text:

01000000 <_start>:
 1000000:	f1402573          	csrr	a0,mhartid
 1000004:	00000297          	auipc	t0,0x0
 1000008:	03028293          	addi	t0,t0,48 # 1000034 <exception>
 100000c:	30529073          	csrw	mtvec,t0
 1000010:	00000597          	auipc	a1,0x0
 1000014:	68c58593          	addi	a1,a1,1676 # 100069c <boot_data>
 1000018:	00050e63          	beqz	a0,1000034 <exception>
 100001c:	00000597          	auipc	a1,0x0
 1000020:	02458593          	addi	a1,a1,36 # 1000040 <device_tree>
 1000024:	00050863          	beqz	a0,1000034 <exception>
 1000028:	00000297          	auipc	t0,0x0
 100002c:	6702a283          	lw	t0,1648(t0) # 1000698 <entry_addr>
 1000030:	000280e7          	jalr	t0

01000034 <exception>:
 1000034:	10500073          	wfi
 1000038:	ffdff06f          	j	1000034 <exception>
 100003c:	00000013          	nop

01000040 <device_tree>:
 1000040:	0dd0                	addi	a2,sp,724
 1000042:	edfe                	fsw	ft11,216(sp)
 1000044:	0000                	unimp
 1000046:	5606                	lw	a2,96(sp)
 1000048:	0000                	unimp
 100004a:	3800                	fld	fs0,48(s0)
 100004c:	0000                	unimp
 100004e:	2c05                	jal	100027e <device_tree+0x23e>
 1000050:	0000                	unimp
 1000052:	2800                	fld	fs0,16(s0)
 1000054:	0000                	unimp
 1000056:	1100                	addi	s0,sp,160
 1000058:	0000                	unimp
 100005a:	1000                	addi	s0,sp,32
 100005c:	0000                	unimp
 100005e:	0000                	unimp
 1000060:	0000                	unimp
 1000062:	2a01                	jal	1000172 <device_tree+0x132>
 1000064:	0000                	unimp
 1000066:	f404                	fsw	fs1,40(s0)
	...
 1000078:	0000                	unimp
 100007a:	0100                	addi	s0,sp,128
 100007c:	0000                	unimp
 100007e:	0000                	unimp
 1000080:	0000                	unimp
 1000082:	0300                	addi	s0,sp,384
 1000084:	0000                	unimp
 1000086:	0400                	addi	s0,sp,512
 1000088:	0000                	unimp
 100008a:	0000                	unimp
 100008c:	0000                	unimp
 100008e:	0200                	addi	s0,sp,256
 1000090:	0000                	unimp
 1000092:	0300                	addi	s0,sp,384
 1000094:	0000                	unimp
 1000096:	0400                	addi	s0,sp,512
 1000098:	0000                	unimp
 100009a:	0f00                	addi	s0,sp,912
 100009c:	0000                	unimp
 100009e:	0200                	addi	s0,sp,256
 10000a0:	0000                	unimp
 10000a2:	0300                	addi	s0,sp,384
 10000a4:	0000                	unimp
 10000a6:	0f00                	addi	s0,sp,912
 10000a8:	0000                	unimp
 10000aa:	1b00                	addi	s0,sp,432
 10000ac:	7465                	lui	s0,0xffff9
 10000ae:	2c68                	fld	fa0,216(s0)
 10000b0:	6163636f          	jal	t1,10366c6 <boot_data+0x3602a>
 10000b4:	796d                	lui	s2,0xffffb
 10000b6:	642d                	lui	s0,0xb
 10000b8:	7665                	lui	a2,0xffff9
 10000ba:	0000                	unimp
 10000bc:	0000                	unimp
 10000be:	0300                	addi	s0,sp,384
 10000c0:	0000                	unimp
 10000c2:	0b00                	addi	s0,sp,400
 10000c4:	0000                	unimp
 10000c6:	2600                	fld	fs0,8(a2)
 10000c8:	7465                	lui	s0,0xffff9
 10000ca:	2c68                	fld	fa0,216(s0)
 10000cc:	6163636f          	jal	t1,10366e2 <boot_data+0x36046>
 10000d0:	796d                	lui	s2,0xffffb
 10000d2:	0000                	unimp
 10000d4:	0000                	unimp
 10000d6:	0100                	addi	s0,sp,128
 10000d8:	736f6863          	bltu	t5,s6,1000808 <boot_data+0x16c>
 10000dc:	6e65                	lui	t3,0x19
 10000de:	0000                	unimp
 10000e0:	0000                	unimp
 10000e2:	0300                	addi	s0,sp,384
 10000e4:	0000                	unimp
 10000e6:	0600                	addi	s0,sp,768
 10000e8:	0000                	unimp
 10000ea:	2c00                	fld	fs0,24(s0)
 10000ec:	6974682f          	0x6974682f
 10000f0:	0066                	c.slli	zero,0x19
 10000f2:	0000                	unimp
 10000f4:	0000                	unimp
 10000f6:	0200                	addi	s0,sp,256
 10000f8:	0000                	unimp
 10000fa:	0100                	addi	s0,sp,128
 10000fc:	656d                	lui	a0,0x1b
 10000fe:	6f6d                	lui	t5,0x1b
 1000100:	7972                	flw	fs2,60(sp)
 1000102:	3840                	fld	fs0,176(s0)
 1000104:	3030                	fld	fa2,96(s0)
 1000106:	3030                	fld	fa2,96(s0)
 1000108:	3030                	fld	fa2,96(s0)
 100010a:	0030                	addi	a2,sp,8
 100010c:	0000                	unimp
 100010e:	0300                	addi	s0,sp,384
 1000110:	0000                	unimp
 1000112:	0700                	addi	s0,sp,896
 1000114:	0000                	unimp
 1000116:	3800                	fld	fs0,48(s0)
 1000118:	656d                	lui	a0,0x1b
 100011a:	6f6d                	lui	t5,0x1b
 100011c:	7972                	flw	fs2,60(sp)
 100011e:	0000                	unimp
 1000120:	0000                	unimp
 1000122:	0300                	addi	s0,sp,384
 1000124:	0000                	unimp
 1000126:	1000                	addi	s0,sp,32
 1000128:	0000                	unimp
 100012a:	4400                	lw	s0,8(s0)
 100012c:	0000                	unimp
 100012e:	0000                	unimp
 1000130:	0080                	addi	s0,sp,64
 1000132:	0000                	unimp
 1000134:	0000                	unimp
 1000136:	0000                	unimp
 1000138:	0040                	addi	s0,sp,4
 100013a:	0000                	unimp
 100013c:	0000                	unimp
 100013e:	0200                	addi	s0,sp,256
 1000140:	0000                	unimp
 1000142:	0100                	addi	s0,sp,128
 1000144:	73757063          	bgeu	a0,s7,1000864 <boot_data+0x1c8>
 1000148:	0000                	unimp
 100014a:	0000                	unimp
 100014c:	0000                	unimp
 100014e:	0300                	addi	s0,sp,384
 1000150:	0000                	unimp
 1000152:	0400                	addi	s0,sp,512
 1000154:	0000                	unimp
 1000156:	0000                	unimp
 1000158:	0000                	unimp
 100015a:	0100                	addi	s0,sp,128
 100015c:	0000                	unimp
 100015e:	0300                	addi	s0,sp,384
 1000160:	0000                	unimp
 1000162:	0400                	addi	s0,sp,512
 1000164:	0000                	unimp
 1000166:	0f00                	addi	s0,sp,912
 1000168:	0000                	unimp
 100016a:	0000                	unimp
 100016c:	0000                	unimp
 100016e:	0300                	addi	s0,sp,384
 1000170:	0000                	unimp
 1000172:	0400                	addi	s0,sp,512
 1000174:	0000                	unimp
 1000176:	4800                	lw	s0,16(s0)
 1000178:	7d01                	lui	s10,0xfffe0
 100017a:	4078                	lw	a4,68(s0)
 100017c:	0000                	unimp
 100017e:	0100                	addi	s0,sp,128
 1000180:	40757063          	bgeu	a0,t2,1000580 <device_tree+0x540>
 1000184:	0030                	addi	a2,sp,8
 1000186:	0000                	unimp
 1000188:	0000                	unimp
 100018a:	0300                	addi	s0,sp,384
 100018c:	0000                	unimp
 100018e:	0400                	addi	s0,sp,512
 1000190:	0000                	unimp
 1000192:	3800                	fld	fs0,48(s0)
 1000194:	00757063          	bgeu	a0,t2,1000194 <device_tree+0x154>
 1000198:	0000                	unimp
 100019a:	0300                	addi	s0,sp,384
 100019c:	0000                	unimp
 100019e:	0500                	addi	s0,sp,640
 10001a0:	0000                	unimp
 10001a2:	5b00                	lw	s0,48(a4)
 10001a4:	79616b6f          	jal	s6,101693a <boot_data+0x1629e>
 10001a8:	0000                	unimp
 10001aa:	0000                	unimp
 10001ac:	0000                	unimp
 10001ae:	0300                	addi	s0,sp,384
 10001b0:	0000                	unimp
 10001b2:	1100                	addi	s0,sp,160
 10001b4:	0000                	unimp
 10001b6:	1b00                	addi	s0,sp,432
 10001b8:	6972                	flw	fs2,28(sp)
 10001ba:	00766373          	csrrsi	t1,0x7,12
 10001be:	7465                	lui	s0,0xffff9
 10001c0:	2c68                	fld	fa0,216(s0)
 10001c2:	7261                	lui	tp,0xffff8
 10001c4:	6169                	addi	sp,sp,208
 10001c6:	656e                	flw	fa0,216(sp)
 10001c8:	0000                	unimp
 10001ca:	0000                	unimp
 10001cc:	0000                	unimp
 10001ce:	0300                	addi	s0,sp,384
 10001d0:	0000                	unimp
 10001d2:	0400                	addi	s0,sp,512
 10001d4:	0000                	unimp
 10001d6:	6200                	flw	fs0,0(a2)
 10001d8:	fa02                	fsw	ft0,52(sp)
 10001da:	80f0                	0x80f0
 10001dc:	0000                	unimp
 10001de:	0300                	addi	s0,sp,384
 10001e0:	0000                	unimp
 10001e2:	0b00                	addi	s0,sp,400
 10001e4:	0000                	unimp
 10001e6:	7200                	flw	fs0,32(a2)
 10001e8:	7672                	flw	fa2,60(sp)
 10001ea:	3436                	fld	fs0,360(sp)
 10001ec:	6966                	flw	fs2,88(sp)
 10001ee:	616d                	addi	sp,sp,240
 10001f0:	6466                	flw	fs0,88(sp)
 10001f2:	0000                	unimp
 10001f4:	0000                	unimp
 10001f6:	0300                	addi	s0,sp,384
 10001f8:	0000                	unimp
 10001fa:	0b00                	addi	s0,sp,400
 10001fc:	0000                	unimp
 10001fe:	7c00                	flw	fs0,56(s0)
 1000200:	6972                	flw	fs2,28(sp)
 1000202:	2c766373          	csrrsi	t1,0x2c7,12
 1000206:	39337673          	csrrci	a2,0x393,6
 100020a:	0000                	unimp
 100020c:	0000                	unimp
 100020e:	0300                	addi	s0,sp,384
 1000210:	0000                	unimp
 1000212:	0000                	unimp
 1000214:	0000                	unimp
 1000216:	8500                	0x8500
 1000218:	0000                	unimp
 100021a:	0300                	addi	s0,sp,384
 100021c:	0000                	unimp
 100021e:	0400                	addi	s0,sp,512
 1000220:	0000                	unimp
 1000222:	4400                	lw	s0,8(s0)
 1000224:	0000                	unimp
 1000226:	0000                	unimp
 1000228:	0000                	unimp
 100022a:	0100                	addi	s0,sp,128
 100022c:	6e69                	lui	t3,0x1a
 100022e:	6574                	flw	fa3,76(a0)
 1000230:	7272                	flw	ft4,60(sp)
 1000232:	7075                	c.lui	zero,0xffffd
 1000234:	2d74                	fld	fa3,216(a0)
 1000236:	746e6f63          	bltu	t3,t1,1000994 <boot_data+0x2f8>
 100023a:	6f72                	flw	ft10,28(sp)
 100023c:	6c6c                	flw	fa1,92(s0)
 100023e:	7265                	lui	tp,0xffff9
 1000240:	0000                	unimp
 1000242:	0000                	unimp
 1000244:	0000                	unimp
 1000246:	0300                	addi	s0,sp,384
 1000248:	0000                	unimp
 100024a:	0400                	addi	s0,sp,512
 100024c:	0000                	unimp
 100024e:	8f00                	0x8f00
 1000250:	0000                	unimp
 1000252:	0100                	addi	s0,sp,128
 1000254:	0000                	unimp
 1000256:	0300                	addi	s0,sp,384
 1000258:	0000                	unimp
 100025a:	0000                	unimp
 100025c:	0000                	unimp
 100025e:	a000                	fsd	fs0,0(s0)
 1000260:	0000                	unimp
 1000262:	0300                	addi	s0,sp,384
 1000264:	0000                	unimp
 1000266:	0f00                	addi	s0,sp,912
 1000268:	0000                	unimp
 100026a:	1b00                	addi	s0,sp,432
 100026c:	6972                	flw	fs2,28(sp)
 100026e:	2c766373          	csrrsi	t1,0x2c7,12
 1000272:	2d757063          	bgeu	a0,s7,1000532 <device_tree+0x4f2>
 1000276:	6e69                	lui	t3,0x1a
 1000278:	6374                	flw	fa3,68(a4)
 100027a:	0000                	unimp
 100027c:	0000                	unimp
 100027e:	0300                	addi	s0,sp,384
 1000280:	0000                	unimp
 1000282:	0400                	addi	s0,sp,512
 1000284:	0000                	unimp
 1000286:	b500                	fsd	fs0,40(a0)
 1000288:	0000                	unimp
 100028a:	0100                	addi	s0,sp,128
 100028c:	0000                	unimp
 100028e:	0200                	addi	s0,sp,256
 1000290:	0000                	unimp
 1000292:	0200                	addi	s0,sp,256
 1000294:	0000                	unimp
 1000296:	0200                	addi	s0,sp,256
 1000298:	0000                	unimp
 100029a:	0100                	addi	s0,sp,128
 100029c:	00636f73          	csrrsi	t5,0x6,6
 10002a0:	0000                	unimp
 10002a2:	0300                	addi	s0,sp,384
 10002a4:	0000                	unimp
 10002a6:	0400                	addi	s0,sp,512
 10002a8:	0000                	unimp
 10002aa:	0000                	unimp
 10002ac:	0000                	unimp
 10002ae:	0200                	addi	s0,sp,256
 10002b0:	0000                	unimp
 10002b2:	0300                	addi	s0,sp,384
 10002b4:	0000                	unimp
 10002b6:	0400                	addi	s0,sp,512
 10002b8:	0000                	unimp
 10002ba:	0f00                	addi	s0,sp,912
 10002bc:	0000                	unimp
 10002be:	0200                	addi	s0,sp,256
 10002c0:	0000                	unimp
 10002c2:	0300                	addi	s0,sp,384
 10002c4:	0000                	unimp
 10002c6:	0b00                	addi	s0,sp,400
 10002c8:	0000                	unimp
 10002ca:	1b00                	addi	s0,sp,432
 10002cc:	706d6973          	csrrsi	s2,0x706,26
 10002d0:	656c                	flw	fa1,76(a0)
 10002d2:	622d                	lui	tp,0xb
 10002d4:	7375                	lui	t1,0xffffd
 10002d6:	0000                	unimp
 10002d8:	0000                	unimp
 10002da:	0300                	addi	s0,sp,384
 10002dc:	0000                	unimp
 10002de:	0000                	unimp
 10002e0:	0000                	unimp
 10002e2:	bd00                	fsd	fs0,56(a0)
 10002e4:	0000                	unimp
 10002e6:	0100                	addi	s0,sp,128
 10002e8:	6564                	flw	fs1,76(a0)
 10002ea:	7562                	flw	fa0,56(sp)
 10002ec:	00304067          	0x304067
 10002f0:	0000                	unimp
 10002f2:	0300                	addi	s0,sp,384
 10002f4:	0000                	unimp
 10002f6:	1000                	addi	s0,sp,32
 10002f8:	0000                	unimp
 10002fa:	1b00                	addi	s0,sp,432
 10002fc:	6972                	flw	fs2,28(sp)
 10002fe:	2c766373          	csrrsi	t1,0x2c7,12
 1000302:	6564                	flw	fs1,76(a0)
 1000304:	7562                	flw	fa0,56(sp)
 1000306:	31302d67          	0x31302d67
 100030a:	00000033          	add	zero,zero,zero
 100030e:	0300                	addi	s0,sp,384
 1000310:	0000                	unimp
 1000312:	0800                	addi	s0,sp,16
 1000314:	0000                	unimp
 1000316:	c400                	sw	s0,8(s0)
 1000318:	0000                	unimp
 100031a:	0100                	addi	s0,sp,128
 100031c:	0000                	unimp
 100031e:	ffff                	0xffff
 1000320:	0000                	unimp
 1000322:	0300                	addi	s0,sp,384
 1000324:	0000                	unimp
 1000326:	0800                	addi	s0,sp,16
 1000328:	0000                	unimp
 100032a:	d800                	sw	s0,48(s0)
 100032c:	746e6f63          	bltu	t3,t1,1000a8a <boot_data+0x3ee>
 1000330:	6f72                	flw	ft10,28(sp)
 1000332:	006c                	addi	a1,sp,12
 1000334:	0000                	unimp
 1000336:	0300                	addi	s0,sp,384
 1000338:	0000                	unimp
 100033a:	1000                	addi	s0,sp,32
 100033c:	0000                	unimp
 100033e:	4400                	lw	s0,8(s0)
	...
 100034c:	0000                	unimp
 100034e:	0010                	0x10
 1000350:	0000                	unimp
 1000352:	0200                	addi	s0,sp,256
 1000354:	0000                	unimp
 1000356:	0100                	addi	s0,sp,128
 1000358:	69726573          	csrrsi	a0,0x697,4
 100035c:	6c61                	lui	s8,0x18
 100035e:	3240                	fld	fs0,160(a2)
 1000360:	3030                	fld	fa2,96(s0)
 1000362:	3032                	fld	ft0,296(sp)
 1000364:	3030                	fld	fa2,96(s0)
 1000366:	0000                	unimp
 1000368:	0000                	unimp
 100036a:	0300                	addi	s0,sp,384
 100036c:	0000                	unimp
 100036e:	0f00                	addi	s0,sp,912
 1000370:	0000                	unimp
 1000372:	1b00                	addi	s0,sp,432
 1000374:	6f6c                	flw	fa1,92(a4)
 1000376:	73697277          	0x73697277
 100037a:	65732c63          	0x65732c63
 100037e:	6972                	flw	fs2,28(sp)
 1000380:	6c61                	lui	s8,0x18
 1000382:	0000                	unimp
 1000384:	0000                	unimp
 1000386:	0300                	addi	s0,sp,384
 1000388:	0000                	unimp
 100038a:	0400                	addi	s0,sp,512
 100038c:	0000                	unimp
 100038e:	6200                	flw	fs0,0(a2)
 1000390:	fa02                	fsw	ft0,52(sp)
 1000392:	80f0                	0x80f0
 1000394:	0000                	unimp
 1000396:	0300                	addi	s0,sp,384
 1000398:	0000                	unimp
 100039a:	0400                	addi	s0,sp,512
 100039c:	0000                	unimp
 100039e:	e200                	fsw	fs0,0(a2)
 10003a0:	0100                	addi	s0,sp,128
 10003a2:	00c2                	slli	ra,ra,0x10
 10003a4:	0000                	unimp
 10003a6:	0300                	addi	s0,sp,384
 10003a8:	0000                	unimp
 10003aa:	0400                	addi	s0,sp,512
 10003ac:	0000                	unimp
 10003ae:	f000                	fsw	fs0,32(s0)
 10003b0:	0000                	unimp
 10003b2:	0200                	addi	s0,sp,256
 10003b4:	0000                	unimp
 10003b6:	0300                	addi	s0,sp,384
 10003b8:	0000                	unimp
 10003ba:	0400                	addi	s0,sp,512
 10003bc:	0000                	unimp
 10003be:	0101                	addi	sp,sp,0
 10003c0:	0000                	unimp
 10003c2:	0100                	addi	s0,sp,128
 10003c4:	0000                	unimp
 10003c6:	0300                	addi	s0,sp,384
 10003c8:	0000                	unimp
 10003ca:	1000                	addi	s0,sp,32
 10003cc:	0000                	unimp
 10003ce:	4400                	lw	s0,8(s0)
 10003d0:	0000                	unimp
 10003d2:	0000                	unimp
 10003d4:	0002                	c.slli64	zero
 10003d6:	0020                	addi	s0,sp,8
 10003d8:	0000                	unimp
 10003da:	0000                	unimp
 10003dc:	0000                	unimp
 10003de:	0010                	0x10
 10003e0:	0000                	unimp
 10003e2:	0200                	addi	s0,sp,256
 10003e4:	0000                	unimp
 10003e6:	0100                	addi	s0,sp,128
 10003e8:	6e696c63          	bltu	s2,t1,1000ae0 <boot_data+0x444>
 10003ec:	4074                	lw	a3,68(s0)
 10003ee:	3034                	fld	fa3,96(s0)
 10003f0:	3030                	fld	fa2,96(s0)
 10003f2:	3030                	fld	fa2,96(s0)
 10003f4:	0030                	addi	a2,sp,8
 10003f6:	0000                	unimp
 10003f8:	0000                	unimp
 10003fa:	0300                	addi	s0,sp,384
 10003fc:	0000                	unimp
 10003fe:	0d00                	addi	s0,sp,656
 1000400:	0000                	unimp
 1000402:	1b00                	addi	s0,sp,432
 1000404:	6972                	flw	fs2,28(sp)
 1000406:	2c766373          	csrrsi	t1,0x2c7,12
 100040a:	6e696c63          	bltu	s2,t1,1000b02 <boot_data+0x466>
 100040e:	3074                	fld	fa3,224(s0)
 1000410:	0000                	unimp
 1000412:	0000                	unimp
 1000414:	0000                	unimp
 1000416:	0300                	addi	s0,sp,384
 1000418:	0000                	unimp
 100041a:	1000                	addi	s0,sp,32
 100041c:	0000                	unimp
 100041e:	c400                	sw	s0,8(s0)
 1000420:	0000                	unimp
 1000422:	0100                	addi	s0,sp,128
 1000424:	0000                	unimp
 1000426:	0300                	addi	s0,sp,384
 1000428:	0000                	unimp
 100042a:	0100                	addi	s0,sp,128
 100042c:	0000                	unimp
 100042e:	0700                	addi	s0,sp,896
 1000430:	0000                	unimp
 1000432:	0300                	addi	s0,sp,384
 1000434:	0000                	unimp
 1000436:	0800                	addi	s0,sp,16
 1000438:	0000                	unimp
 100043a:	d800                	sw	s0,48(s0)
 100043c:	746e6f63          	bltu	t3,t1,1000b9a <boot_data+0x4fe>
 1000440:	6f72                	flw	ft10,28(sp)
 1000442:	006c                	addi	a1,sp,12
 1000444:	0000                	unimp
 1000446:	0300                	addi	s0,sp,384
 1000448:	0000                	unimp
 100044a:	1000                	addi	s0,sp,32
 100044c:	0000                	unimp
 100044e:	4400                	lw	s0,8(s0)
 1000450:	0000                	unimp
 1000452:	0000                	unimp
 1000454:	0004                	0x4
 1000456:	0000                	unimp
 1000458:	0000                	unimp
 100045a:	0000                	unimp
 100045c:	1000                	addi	s0,sp,32
 100045e:	0000                	unimp
 1000460:	0000                	unimp
 1000462:	0200                	addi	s0,sp,256
 1000464:	0000                	unimp
 1000466:	0100                	addi	s0,sp,128
 1000468:	6e69                	lui	t3,0x1a
 100046a:	6574                	flw	fa3,76(a0)
 100046c:	7272                	flw	ft4,60(sp)
 100046e:	7075                	c.lui	zero,0xffffd
 1000470:	2d74                	fld	fa3,216(a0)
 1000472:	746e6f63          	bltu	t3,t1,1000bd0 <boot_data+0x534>
 1000476:	6f72                	flw	ft10,28(sp)
 1000478:	6c6c                	flw	fa1,92(s0)
 100047a:	7265                	lui	tp,0xffff9
 100047c:	6340                	flw	fs0,4(a4)
 100047e:	3030                	fld	fa2,96(s0)
 1000480:	3030                	fld	fa2,96(s0)
 1000482:	3030                	fld	fa2,96(s0)
 1000484:	0000                	unimp
 1000486:	0000                	unimp
 1000488:	0000                	unimp
 100048a:	0300                	addi	s0,sp,384
 100048c:	0000                	unimp
 100048e:	0c00                	addi	s0,sp,528
 1000490:	0000                	unimp
 1000492:	1b00                	addi	s0,sp,432
 1000494:	6972                	flw	fs2,28(sp)
 1000496:	2c766373          	csrrsi	t1,0x2c7,12
 100049a:	6c70                	flw	fa2,92(s0)
 100049c:	6369                	lui	t1,0x1a
 100049e:	0030                	addi	a2,sp,8
 10004a0:	0000                	unimp
 10004a2:	0300                	addi	s0,sp,384
 10004a4:	0000                	unimp
 10004a6:	0400                	addi	s0,sp,512
	...
 10004b0:	0000                	unimp
 10004b2:	0300                	addi	s0,sp,384
 10004b4:	0000                	unimp
 10004b6:	0400                	addi	s0,sp,512
 10004b8:	0000                	unimp
 10004ba:	8f00                	0x8f00
 10004bc:	0000                	unimp
 10004be:	0100                	addi	s0,sp,128
 10004c0:	0000                	unimp
 10004c2:	0300                	addi	s0,sp,384
 10004c4:	0000                	unimp
 10004c6:	0000                	unimp
 10004c8:	0000                	unimp
 10004ca:	a000                	fsd	fs0,0(s0)
 10004cc:	0000                	unimp
 10004ce:	0300                	addi	s0,sp,384
 10004d0:	0000                	unimp
 10004d2:	1000                	addi	s0,sp,32
 10004d4:	0000                	unimp
 10004d6:	c400                	sw	s0,8(s0)
 10004d8:	0000                	unimp
 10004da:	0100                	addi	s0,sp,128
 10004dc:	0000                	unimp
 10004de:	0b00                	addi	s0,sp,400
 10004e0:	0000                	unimp
 10004e2:	0100                	addi	s0,sp,128
 10004e4:	0000                	unimp
 10004e6:	0900                	addi	s0,sp,144
 10004e8:	0000                	unimp
 10004ea:	0300                	addi	s0,sp,384
 10004ec:	0000                	unimp
 10004ee:	0400                	addi	s0,sp,512
 10004f0:	0000                	unimp
 10004f2:	0c01                	addi	s8,s8,0
 10004f4:	0000                	unimp
 10004f6:	0700                	addi	s0,sp,896
 10004f8:	0000                	unimp
 10004fa:	0300                	addi	s0,sp,384
 10004fc:	0000                	unimp
 10004fe:	0400                	addi	s0,sp,512
 1000500:	0000                	unimp
 1000502:	1f01                	addi	t5,t5,-32
 1000504:	0000                	unimp
 1000506:	1e00                	addi	s0,sp,816
 1000508:	0000                	unimp
 100050a:	0300                	addi	s0,sp,384
 100050c:	0000                	unimp
 100050e:	1000                	addi	s0,sp,32
 1000510:	0000                	unimp
 1000512:	4400                	lw	s0,8(s0)
 1000514:	0000                	unimp
 1000516:	0000                	unimp
 1000518:	000c                	0xc
 100051a:	0000                	unimp
 100051c:	0000                	unimp
 100051e:	0000                	unimp
 1000520:	0004                	0x4
 1000522:	0000                	unimp
 1000524:	0000                	unimp
 1000526:	0300                	addi	s0,sp,384
 1000528:	0000                	unimp
 100052a:	0400                	addi	s0,sp,512
 100052c:	0000                	unimp
 100052e:	b500                	fsd	fs0,40(a0)
 1000530:	0000                	unimp
 1000532:	0200                	addi	s0,sp,256
 1000534:	0000                	unimp
 1000536:	0200                	addi	s0,sp,256
 1000538:	0000                	unimp
 100053a:	0200                	addi	s0,sp,256
 100053c:	0000                	unimp
 100053e:	0100                	addi	s0,sp,128
 1000540:	7468                	flw	fa0,108(s0)
 1000542:	6669                	lui	a2,0x1a
 1000544:	0000                	unimp
 1000546:	0000                	unimp
 1000548:	0000                	unimp
 100054a:	0300                	addi	s0,sp,384
 100054c:	0000                	unimp
 100054e:	0a00                	addi	s0,sp,272
 1000550:	0000                	unimp
 1000552:	1b00                	addi	s0,sp,432
 1000554:	6375                	lui	t1,0x1d
 1000556:	2c62                	fld	fs8,24(sp)
 1000558:	7468                	flw	fa0,108(s0)
 100055a:	6669                	lui	a2,0x1a
 100055c:	0030                	addi	a2,sp,8
 100055e:	0000                	unimp
 1000560:	0000                	unimp
 1000562:	0200                	addi	s0,sp,256
 1000564:	0000                	unimp
 1000566:	0200                	addi	s0,sp,256
 1000568:	0000                	unimp
 100056a:	0900                	addi	s0,sp,144
 100056c:	64646123          	0x64646123
 1000570:	6572                	flw	fa0,28(sp)
 1000572:	632d7373          	csrrci	t1,0x632,26
 1000576:	6c65                	lui	s8,0x19
 1000578:	736c                	flw	fa1,100(a4)
 100057a:	2300                	fld	fs0,0(a4)
 100057c:	657a6973          	csrrsi	s2,0x657,20
 1000580:	632d                	lui	t1,0xb
 1000582:	6c65                	lui	s8,0x19
 1000584:	736c                	flw	fa1,100(a4)
 1000586:	6300                	flw	fs0,0(a4)
 1000588:	61706d6f          	jal	s10,100739e <boot_data+0x6d02>
 100058c:	6974                	flw	fa3,84(a0)
 100058e:	6c62                	flw	fs8,24(sp)
 1000590:	0065                	c.nop	25
 1000592:	6f6d                	lui	t5,0x1b
 1000594:	6564                	flw	fs1,76(a0)
 1000596:	006c                	addi	a1,sp,12
 1000598:	6f647473          	csrrci	s0,0x6f6,8
 100059c:	7475                	lui	s0,0xffffd
 100059e:	702d                	c.lui	zero,0xfffeb
 10005a0:	7461                	lui	s0,0xffff8
 10005a2:	0068                	addi	a0,sp,12
 10005a4:	6564                	flw	fs1,76(a0)
 10005a6:	6976                	flw	fs2,92(sp)
 10005a8:	745f6563          	bltu	t5,t0,1000cf2 <boot_data+0x656>
 10005ac:	7079                	c.lui	zero,0xffffe
 10005ae:	0065                	c.nop	25
 10005b0:	6572                	flw	fa0,28(sp)
 10005b2:	69740067          	jr	1687(s0) # ffff8697 <boot_data+0xfeff7ffb>
 10005b6:	656d                	lui	a0,0x1b
 10005b8:	6162                	flw	ft2,24(sp)
 10005ba:	662d6573          	csrrsi	a0,0x662,26
 10005be:	6572                	flw	fa0,28(sp)
 10005c0:	7571                	lui	a0,0xffffc
 10005c2:	6e65                	lui	t3,0x19
 10005c4:	73007963          	bgeu	zero,a6,1000cf6 <boot_data+0x65a>
 10005c8:	6174                	flw	fa3,68(a0)
 10005ca:	7574                	flw	fa3,108(a0)
 10005cc:	6c630073          	0x6c630073
 10005d0:	2d6b636f          	jal	t1,10b68a6 <boot_data+0xb620a>
 10005d4:	7266                	flw	ft4,120(sp)
 10005d6:	7165                	addi	sp,sp,-400
 10005d8:	6575                	lui	a0,0x1d
 10005da:	636e                	flw	ft6,216(sp)
 10005dc:	0079                	c.nop	30
 10005de:	6972                	flw	fs2,28(sp)
 10005e0:	2c766373          	csrrsi	t1,0x2c7,12
 10005e4:	7369                	lui	t1,0xffffa
 10005e6:	0061                	c.nop	24
 10005e8:	6d6d                	lui	s10,0x1b
 10005ea:	2d75                	jal	1000ca6 <boot_data+0x60a>
 10005ec:	7974                	flw	fa3,116(a0)
 10005ee:	6570                	flw	fa2,76(a0)
 10005f0:	7400                	flw	fs0,40(s0)
 10005f2:	626c                	flw	fa1,68(a2)
 10005f4:	732d                	lui	t1,0xfffeb
 10005f6:	6c70                	flw	fa2,92(s0)
 10005f8:	7469                	lui	s0,0xffffa
 10005fa:	2300                	fld	fs0,0(a4)
 10005fc:	6e69                	lui	t3,0x1a
 10005fe:	6574                	flw	fa3,76(a0)
 1000600:	7272                	flw	ft4,60(sp)
 1000602:	7075                	c.lui	zero,0xffffd
 1000604:	2d74                	fld	fa3,216(a0)
 1000606:	6c6c6563          	bltu	s8,t1,1000cd0 <boot_data+0x634>
 100060a:	6e690073          	0x6e690073
 100060e:	6574                	flw	fa3,76(a0)
 1000610:	7272                	flw	ft4,60(sp)
 1000612:	7075                	c.lui	zero,0xffffd
 1000614:	2d74                	fld	fa3,216(a0)
 1000616:	746e6f63          	bltu	t3,t1,1000d74 <boot_data+0x6d8>
 100061a:	6f72                	flw	ft10,28(sp)
 100061c:	6c6c                	flw	fa1,92(s0)
 100061e:	7265                	lui	tp,0xffff9
 1000620:	7000                	flw	fs0,32(s0)
 1000622:	6168                	flw	fa0,68(a0)
 1000624:	646e                	flw	fs0,216(sp)
 1000626:	656c                	flw	fa1,76(a0)
 1000628:	7200                	flw	fs0,32(a2)
 100062a:	6e61                	lui	t3,0x18
 100062c:	00736567          	0x736567
 1000630:	6e69                	lui	t3,0x1a
 1000632:	6574                	flw	fa3,76(a0)
 1000634:	7272                	flw	ft4,60(sp)
 1000636:	7075                	c.lui	zero,0xffffd
 1000638:	7374                	flw	fa3,100(a4)
 100063a:	652d                	lui	a0,0xb
 100063c:	7478                	flw	fa4,108(s0)
 100063e:	6e65                	lui	t3,0x19
 1000640:	6564                	flw	fs1,76(a0)
 1000642:	0064                	addi	s1,sp,12
 1000644:	6572                	flw	fa0,28(sp)
 1000646:	616e2d67          	0x616e2d67
 100064a:	656d                	lui	a0,0x1b
 100064c:	75630073          	0x75630073
 1000650:	7272                	flw	ft4,60(sp)
 1000652:	6e65                	lui	t3,0x19
 1000654:	2d74                	fld	fa3,216(a0)
 1000656:	65657073          	csrci	0x656,10
 100065a:	0064                	addi	s1,sp,12
 100065c:	6e69                	lui	t3,0x1a
 100065e:	6574                	flw	fa3,76(a0)
 1000660:	7272                	flw	ft4,60(sp)
 1000662:	7075                	c.lui	zero,0xffffd
 1000664:	2d74                	fld	fa3,216(a0)
 1000666:	6170                	flw	fa2,68(a0)
 1000668:	6572                	flw	fa0,28(sp)
 100066a:	746e                	flw	fs0,248(sp)
 100066c:	6900                	flw	fs0,16(a0)
 100066e:	746e                	flw	fs0,248(sp)
 1000670:	7265                	lui	tp,0xffff9
 1000672:	7572                	flw	fa0,60(sp)
 1000674:	7470                	flw	fa2,108(s0)
 1000676:	69720073          	0x69720073
 100067a:	2c766373          	csrrsi	t1,0x2c7,12
 100067e:	616d                	addi	sp,sp,240
 1000680:	2d78                	fld	fa4,216(a0)
 1000682:	7270                	flw	fa2,100(a2)
 1000684:	6f69                	lui	t5,0x1a
 1000686:	6972                	flw	fs2,28(sp)
 1000688:	7974                	flw	fa3,116(a0)
 100068a:	7200                	flw	fs0,32(a2)
 100068c:	7369                	lui	t1,0xffffa
 100068e:	6e2c7663          	bgeu	s8,sp,1000d7a <boot_data+0x6de>
 1000692:	6564                	flw	fs1,76(a0)
 1000694:	0076                	c.slli	zero,0x1d
	...

Disassembly of section .bootdata:

01000698 <entry_addr>:
 1000698:	0034                	addi	a3,sp,8
 100069a:	0100                	addi	s0,sp,128

Disassembly of section .riscv.attributes:

00000000 <.riscv.attributes>:
   0:	2d41                	jal	690 <_start-0xfff970>
   2:	0000                	unimp
   4:	7200                	flw	fs0,32(a2)
   6:	7369                	lui	t1,0xffffa
   8:	01007663          	bgeu	zero,a6,14 <_start-0xffffec>
   c:	00000023          	sb	zero,0(zero) # 0 <_start-0x1000000>
  10:	7205                	lui	tp,0xfffe1
  12:	3376                	fld	ft6,376(sp)
  14:	6932                	flw	fs2,12(sp)
  16:	7032                	flw	ft0,44(sp)
  18:	5f30                	lw	a2,120(a4)
  1a:	326d                	jal	fffff9c4 <boot_data+0xfefff328>
  1c:	3070                	fld	fa2,224(s0)
  1e:	615f 7032 5f30      	0x5f307032615f
  24:	3266                	fld	ft4,120(sp)
  26:	3070                	fld	fa2,224(s0)
  28:	645f 7032 0030      	0x307032645f
