
test/bootrom.elf:     file format elf32-littleriscv


Disassembly of section .text:

01000000 <_start>:
 1000000:	f1402573          	csrr	a0,mhartid
 1000004:	00000297          	auipc	t0,0x0
 1000008:	02828293          	addi	t0,t0,40 # 100002c <exception>
 100000c:	30529073          	csrw	mtvec,t0
 1000010:	00000597          	auipc	a1,0x0
 1000014:	02858593          	addi	a1,a1,40 # 1000038 <device_tree>
 1000018:	00050a63          	beqz	a0,100002c <exception>
 100001c:	fff50513          	addi	a0,a0,-1
 1000020:	00000297          	auipc	t0,0x0
 1000024:	6702a283          	lw	t0,1648(t0) # 1000690 <entry_addr>
 1000028:	000280e7          	jalr	t0

0100002c <exception>:
 100002c:	10500073          	wfi
 1000030:	ffdff06f          	j	100002c <exception>
 1000034:	00000013          	nop

01000038 <device_tree>:
 1000038:	0dd0                	addi	a2,sp,724
 100003a:	edfe                	fsw	ft11,216(sp)
 100003c:	0000                	unimp
 100003e:	5606                	lw	a2,96(sp)
 1000040:	0000                	unimp
 1000042:	3800                	fld	fs0,48(s0)
 1000044:	0000                	unimp
 1000046:	2c05                	jal	1000276 <device_tree+0x23e>
 1000048:	0000                	unimp
 100004a:	2800                	fld	fs0,16(s0)
 100004c:	0000                	unimp
 100004e:	1100                	addi	s0,sp,160
 1000050:	0000                	unimp
 1000052:	1000                	addi	s0,sp,32
 1000054:	0000                	unimp
 1000056:	0000                	unimp
 1000058:	0000                	unimp
 100005a:	2a01                	jal	100016a <device_tree+0x132>
 100005c:	0000                	unimp
 100005e:	f404                	fsw	fs1,40(s0)
	...
 1000070:	0000                	unimp
 1000072:	0100                	addi	s0,sp,128
 1000074:	0000                	unimp
 1000076:	0000                	unimp
 1000078:	0000                	unimp
 100007a:	0300                	addi	s0,sp,384
 100007c:	0000                	unimp
 100007e:	0400                	addi	s0,sp,512
 1000080:	0000                	unimp
 1000082:	0000                	unimp
 1000084:	0000                	unimp
 1000086:	0200                	addi	s0,sp,256
 1000088:	0000                	unimp
 100008a:	0300                	addi	s0,sp,384
 100008c:	0000                	unimp
 100008e:	0400                	addi	s0,sp,512
 1000090:	0000                	unimp
 1000092:	0f00                	addi	s0,sp,912
 1000094:	0000                	unimp
 1000096:	0200                	addi	s0,sp,256
 1000098:	0000                	unimp
 100009a:	0300                	addi	s0,sp,384
 100009c:	0000                	unimp
 100009e:	0f00                	addi	s0,sp,912
 10000a0:	0000                	unimp
 10000a2:	1b00                	addi	s0,sp,432
 10000a4:	7465                	lui	s0,0xffff9
 10000a6:	2c68                	fld	fa0,216(s0)
 10000a8:	6163636f          	jal	t1,10366be <boot_data+0x3602a>
 10000ac:	796d                	lui	s2,0xffffb
 10000ae:	642d                	lui	s0,0xb
 10000b0:	7665                	lui	a2,0xffff9
 10000b2:	0000                	unimp
 10000b4:	0000                	unimp
 10000b6:	0300                	addi	s0,sp,384
 10000b8:	0000                	unimp
 10000ba:	0b00                	addi	s0,sp,400
 10000bc:	0000                	unimp
 10000be:	2600                	fld	fs0,8(a2)
 10000c0:	7465                	lui	s0,0xffff9
 10000c2:	2c68                	fld	fa0,216(s0)
 10000c4:	6163636f          	jal	t1,10366da <boot_data+0x36046>
 10000c8:	796d                	lui	s2,0xffffb
 10000ca:	0000                	unimp
 10000cc:	0000                	unimp
 10000ce:	0100                	addi	s0,sp,128
 10000d0:	736f6863          	bltu	t5,s6,1000800 <boot_data+0x16c>
 10000d4:	6e65                	lui	t3,0x19
 10000d6:	0000                	unimp
 10000d8:	0000                	unimp
 10000da:	0300                	addi	s0,sp,384
 10000dc:	0000                	unimp
 10000de:	0600                	addi	s0,sp,768
 10000e0:	0000                	unimp
 10000e2:	2c00                	fld	fs0,24(s0)
 10000e4:	6974682f          	0x6974682f
 10000e8:	0066                	c.slli	zero,0x19
 10000ea:	0000                	unimp
 10000ec:	0000                	unimp
 10000ee:	0200                	addi	s0,sp,256
 10000f0:	0000                	unimp
 10000f2:	0100                	addi	s0,sp,128
 10000f4:	656d                	lui	a0,0x1b
 10000f6:	6f6d                	lui	t5,0x1b
 10000f8:	7972                	flw	fs2,60(sp)
 10000fa:	3840                	fld	fs0,176(s0)
 10000fc:	3030                	fld	fa2,96(s0)
 10000fe:	3030                	fld	fa2,96(s0)
 1000100:	3030                	fld	fa2,96(s0)
 1000102:	0030                	addi	a2,sp,8
 1000104:	0000                	unimp
 1000106:	0300                	addi	s0,sp,384
 1000108:	0000                	unimp
 100010a:	0700                	addi	s0,sp,896
 100010c:	0000                	unimp
 100010e:	3800                	fld	fs0,48(s0)
 1000110:	656d                	lui	a0,0x1b
 1000112:	6f6d                	lui	t5,0x1b
 1000114:	7972                	flw	fs2,60(sp)
 1000116:	0000                	unimp
 1000118:	0000                	unimp
 100011a:	0300                	addi	s0,sp,384
 100011c:	0000                	unimp
 100011e:	1000                	addi	s0,sp,32
 1000120:	0000                	unimp
 1000122:	4400                	lw	s0,8(s0)
 1000124:	0000                	unimp
 1000126:	0000                	unimp
 1000128:	0080                	addi	s0,sp,64
 100012a:	0000                	unimp
 100012c:	0000                	unimp
 100012e:	0000                	unimp
 1000130:	0040                	addi	s0,sp,4
 1000132:	0000                	unimp
 1000134:	0000                	unimp
 1000136:	0200                	addi	s0,sp,256
 1000138:	0000                	unimp
 100013a:	0100                	addi	s0,sp,128
 100013c:	73757063          	bgeu	a0,s7,100085c <boot_data+0x1c8>
 1000140:	0000                	unimp
 1000142:	0000                	unimp
 1000144:	0000                	unimp
 1000146:	0300                	addi	s0,sp,384
 1000148:	0000                	unimp
 100014a:	0400                	addi	s0,sp,512
 100014c:	0000                	unimp
 100014e:	0000                	unimp
 1000150:	0000                	unimp
 1000152:	0100                	addi	s0,sp,128
 1000154:	0000                	unimp
 1000156:	0300                	addi	s0,sp,384
 1000158:	0000                	unimp
 100015a:	0400                	addi	s0,sp,512
 100015c:	0000                	unimp
 100015e:	0f00                	addi	s0,sp,912
 1000160:	0000                	unimp
 1000162:	0000                	unimp
 1000164:	0000                	unimp
 1000166:	0300                	addi	s0,sp,384
 1000168:	0000                	unimp
 100016a:	0400                	addi	s0,sp,512
 100016c:	0000                	unimp
 100016e:	4800                	lw	s0,16(s0)
 1000170:	7d01                	lui	s10,0xfffe0
 1000172:	4078                	lw	a4,68(s0)
 1000174:	0000                	unimp
 1000176:	0100                	addi	s0,sp,128
 1000178:	40757063          	bgeu	a0,t2,1000578 <device_tree+0x540>
 100017c:	0030                	addi	a2,sp,8
 100017e:	0000                	unimp
 1000180:	0000                	unimp
 1000182:	0300                	addi	s0,sp,384
 1000184:	0000                	unimp
 1000186:	0400                	addi	s0,sp,512
 1000188:	0000                	unimp
 100018a:	3800                	fld	fs0,48(s0)
 100018c:	00757063          	bgeu	a0,t2,100018c <device_tree+0x154>
 1000190:	0000                	unimp
 1000192:	0300                	addi	s0,sp,384
 1000194:	0000                	unimp
 1000196:	0500                	addi	s0,sp,640
 1000198:	0000                	unimp
 100019a:	5b00                	lw	s0,48(a4)
 100019c:	79616b6f          	jal	s6,1016932 <boot_data+0x1629e>
 10001a0:	0000                	unimp
 10001a2:	0000                	unimp
 10001a4:	0000                	unimp
 10001a6:	0300                	addi	s0,sp,384
 10001a8:	0000                	unimp
 10001aa:	1100                	addi	s0,sp,160
 10001ac:	0000                	unimp
 10001ae:	1b00                	addi	s0,sp,432
 10001b0:	6972                	flw	fs2,28(sp)
 10001b2:	00766373          	csrrsi	t1,0x7,12
 10001b6:	7465                	lui	s0,0xffff9
 10001b8:	2c68                	fld	fa0,216(s0)
 10001ba:	7261                	lui	tp,0xffff8
 10001bc:	6169                	addi	sp,sp,208
 10001be:	656e                	flw	fa0,216(sp)
 10001c0:	0000                	unimp
 10001c2:	0000                	unimp
 10001c4:	0000                	unimp
 10001c6:	0300                	addi	s0,sp,384
 10001c8:	0000                	unimp
 10001ca:	0400                	addi	s0,sp,512
 10001cc:	0000                	unimp
 10001ce:	6200                	flw	fs0,0(a2)
 10001d0:	fa02                	fsw	ft0,52(sp)
 10001d2:	80f0                	0x80f0
 10001d4:	0000                	unimp
 10001d6:	0300                	addi	s0,sp,384
 10001d8:	0000                	unimp
 10001da:	0b00                	addi	s0,sp,400
 10001dc:	0000                	unimp
 10001de:	7200                	flw	fs0,32(a2)
 10001e0:	7672                	flw	fa2,60(sp)
 10001e2:	3436                	fld	fs0,360(sp)
 10001e4:	6966                	flw	fs2,88(sp)
 10001e6:	616d                	addi	sp,sp,240
 10001e8:	6466                	flw	fs0,88(sp)
 10001ea:	0000                	unimp
 10001ec:	0000                	unimp
 10001ee:	0300                	addi	s0,sp,384
 10001f0:	0000                	unimp
 10001f2:	0b00                	addi	s0,sp,400
 10001f4:	0000                	unimp
 10001f6:	7c00                	flw	fs0,56(s0)
 10001f8:	6972                	flw	fs2,28(sp)
 10001fa:	2c766373          	csrrsi	t1,0x2c7,12
 10001fe:	39337673          	csrrci	a2,0x393,6
 1000202:	0000                	unimp
 1000204:	0000                	unimp
 1000206:	0300                	addi	s0,sp,384
 1000208:	0000                	unimp
 100020a:	0000                	unimp
 100020c:	0000                	unimp
 100020e:	8500                	0x8500
 1000210:	0000                	unimp
 1000212:	0300                	addi	s0,sp,384
 1000214:	0000                	unimp
 1000216:	0400                	addi	s0,sp,512
 1000218:	0000                	unimp
 100021a:	4400                	lw	s0,8(s0)
 100021c:	0000                	unimp
 100021e:	0000                	unimp
 1000220:	0000                	unimp
 1000222:	0100                	addi	s0,sp,128
 1000224:	6e69                	lui	t3,0x1a
 1000226:	6574                	flw	fa3,76(a0)
 1000228:	7272                	flw	ft4,60(sp)
 100022a:	7075                	c.lui	zero,0xffffd
 100022c:	2d74                	fld	fa3,216(a0)
 100022e:	746e6f63          	bltu	t3,t1,100098c <boot_data+0x2f8>
 1000232:	6f72                	flw	ft10,28(sp)
 1000234:	6c6c                	flw	fa1,92(s0)
 1000236:	7265                	lui	tp,0xffff9
 1000238:	0000                	unimp
 100023a:	0000                	unimp
 100023c:	0000                	unimp
 100023e:	0300                	addi	s0,sp,384
 1000240:	0000                	unimp
 1000242:	0400                	addi	s0,sp,512
 1000244:	0000                	unimp
 1000246:	8f00                	0x8f00
 1000248:	0000                	unimp
 100024a:	0100                	addi	s0,sp,128
 100024c:	0000                	unimp
 100024e:	0300                	addi	s0,sp,384
 1000250:	0000                	unimp
 1000252:	0000                	unimp
 1000254:	0000                	unimp
 1000256:	a000                	fsd	fs0,0(s0)
 1000258:	0000                	unimp
 100025a:	0300                	addi	s0,sp,384
 100025c:	0000                	unimp
 100025e:	0f00                	addi	s0,sp,912
 1000260:	0000                	unimp
 1000262:	1b00                	addi	s0,sp,432
 1000264:	6972                	flw	fs2,28(sp)
 1000266:	2c766373          	csrrsi	t1,0x2c7,12
 100026a:	2d757063          	bgeu	a0,s7,100052a <device_tree+0x4f2>
 100026e:	6e69                	lui	t3,0x1a
 1000270:	6374                	flw	fa3,68(a4)
 1000272:	0000                	unimp
 1000274:	0000                	unimp
 1000276:	0300                	addi	s0,sp,384
 1000278:	0000                	unimp
 100027a:	0400                	addi	s0,sp,512
 100027c:	0000                	unimp
 100027e:	b500                	fsd	fs0,40(a0)
 1000280:	0000                	unimp
 1000282:	0100                	addi	s0,sp,128
 1000284:	0000                	unimp
 1000286:	0200                	addi	s0,sp,256
 1000288:	0000                	unimp
 100028a:	0200                	addi	s0,sp,256
 100028c:	0000                	unimp
 100028e:	0200                	addi	s0,sp,256
 1000290:	0000                	unimp
 1000292:	0100                	addi	s0,sp,128
 1000294:	00636f73          	csrrsi	t5,0x6,6
 1000298:	0000                	unimp
 100029a:	0300                	addi	s0,sp,384
 100029c:	0000                	unimp
 100029e:	0400                	addi	s0,sp,512
 10002a0:	0000                	unimp
 10002a2:	0000                	unimp
 10002a4:	0000                	unimp
 10002a6:	0200                	addi	s0,sp,256
 10002a8:	0000                	unimp
 10002aa:	0300                	addi	s0,sp,384
 10002ac:	0000                	unimp
 10002ae:	0400                	addi	s0,sp,512
 10002b0:	0000                	unimp
 10002b2:	0f00                	addi	s0,sp,912
 10002b4:	0000                	unimp
 10002b6:	0200                	addi	s0,sp,256
 10002b8:	0000                	unimp
 10002ba:	0300                	addi	s0,sp,384
 10002bc:	0000                	unimp
 10002be:	0b00                	addi	s0,sp,400
 10002c0:	0000                	unimp
 10002c2:	1b00                	addi	s0,sp,432
 10002c4:	706d6973          	csrrsi	s2,0x706,26
 10002c8:	656c                	flw	fa1,76(a0)
 10002ca:	622d                	lui	tp,0xb
 10002cc:	7375                	lui	t1,0xffffd
 10002ce:	0000                	unimp
 10002d0:	0000                	unimp
 10002d2:	0300                	addi	s0,sp,384
 10002d4:	0000                	unimp
 10002d6:	0000                	unimp
 10002d8:	0000                	unimp
 10002da:	bd00                	fsd	fs0,56(a0)
 10002dc:	0000                	unimp
 10002de:	0100                	addi	s0,sp,128
 10002e0:	6564                	flw	fs1,76(a0)
 10002e2:	7562                	flw	fa0,56(sp)
 10002e4:	00304067          	0x304067
 10002e8:	0000                	unimp
 10002ea:	0300                	addi	s0,sp,384
 10002ec:	0000                	unimp
 10002ee:	1000                	addi	s0,sp,32
 10002f0:	0000                	unimp
 10002f2:	1b00                	addi	s0,sp,432
 10002f4:	6972                	flw	fs2,28(sp)
 10002f6:	2c766373          	csrrsi	t1,0x2c7,12
 10002fa:	6564                	flw	fs1,76(a0)
 10002fc:	7562                	flw	fa0,56(sp)
 10002fe:	31302d67          	0x31302d67
 1000302:	00000033          	add	zero,zero,zero
 1000306:	0300                	addi	s0,sp,384
 1000308:	0000                	unimp
 100030a:	0800                	addi	s0,sp,16
 100030c:	0000                	unimp
 100030e:	c400                	sw	s0,8(s0)
 1000310:	0000                	unimp
 1000312:	0100                	addi	s0,sp,128
 1000314:	0000                	unimp
 1000316:	ffff                	0xffff
 1000318:	0000                	unimp
 100031a:	0300                	addi	s0,sp,384
 100031c:	0000                	unimp
 100031e:	0800                	addi	s0,sp,16
 1000320:	0000                	unimp
 1000322:	d800                	sw	s0,48(s0)
 1000324:	746e6f63          	bltu	t3,t1,1000a82 <boot_data+0x3ee>
 1000328:	6f72                	flw	ft10,28(sp)
 100032a:	006c                	addi	a1,sp,12
 100032c:	0000                	unimp
 100032e:	0300                	addi	s0,sp,384
 1000330:	0000                	unimp
 1000332:	1000                	addi	s0,sp,32
 1000334:	0000                	unimp
 1000336:	4400                	lw	s0,8(s0)
	...
 1000344:	0000                	unimp
 1000346:	0010                	0x10
 1000348:	0000                	unimp
 100034a:	0200                	addi	s0,sp,256
 100034c:	0000                	unimp
 100034e:	0100                	addi	s0,sp,128
 1000350:	69726573          	csrrsi	a0,0x697,4
 1000354:	6c61                	lui	s8,0x18
 1000356:	3240                	fld	fs0,160(a2)
 1000358:	3030                	fld	fa2,96(s0)
 100035a:	3032                	fld	ft0,296(sp)
 100035c:	3030                	fld	fa2,96(s0)
 100035e:	0000                	unimp
 1000360:	0000                	unimp
 1000362:	0300                	addi	s0,sp,384
 1000364:	0000                	unimp
 1000366:	0f00                	addi	s0,sp,912
 1000368:	0000                	unimp
 100036a:	1b00                	addi	s0,sp,432
 100036c:	6f6c                	flw	fa1,92(a4)
 100036e:	73697277          	0x73697277
 1000372:	65732c63          	0x65732c63
 1000376:	6972                	flw	fs2,28(sp)
 1000378:	6c61                	lui	s8,0x18
 100037a:	0000                	unimp
 100037c:	0000                	unimp
 100037e:	0300                	addi	s0,sp,384
 1000380:	0000                	unimp
 1000382:	0400                	addi	s0,sp,512
 1000384:	0000                	unimp
 1000386:	6200                	flw	fs0,0(a2)
 1000388:	fa02                	fsw	ft0,52(sp)
 100038a:	80f0                	0x80f0
 100038c:	0000                	unimp
 100038e:	0300                	addi	s0,sp,384
 1000390:	0000                	unimp
 1000392:	0400                	addi	s0,sp,512
 1000394:	0000                	unimp
 1000396:	e200                	fsw	fs0,0(a2)
 1000398:	0100                	addi	s0,sp,128
 100039a:	00c2                	slli	ra,ra,0x10
 100039c:	0000                	unimp
 100039e:	0300                	addi	s0,sp,384
 10003a0:	0000                	unimp
 10003a2:	0400                	addi	s0,sp,512
 10003a4:	0000                	unimp
 10003a6:	f000                	fsw	fs0,32(s0)
 10003a8:	0000                	unimp
 10003aa:	0200                	addi	s0,sp,256
 10003ac:	0000                	unimp
 10003ae:	0300                	addi	s0,sp,384
 10003b0:	0000                	unimp
 10003b2:	0400                	addi	s0,sp,512
 10003b4:	0000                	unimp
 10003b6:	0101                	addi	sp,sp,0
 10003b8:	0000                	unimp
 10003ba:	0100                	addi	s0,sp,128
 10003bc:	0000                	unimp
 10003be:	0300                	addi	s0,sp,384
 10003c0:	0000                	unimp
 10003c2:	1000                	addi	s0,sp,32
 10003c4:	0000                	unimp
 10003c6:	4400                	lw	s0,8(s0)
 10003c8:	0000                	unimp
 10003ca:	0000                	unimp
 10003cc:	0002                	c.slli64	zero
 10003ce:	0020                	addi	s0,sp,8
 10003d0:	0000                	unimp
 10003d2:	0000                	unimp
 10003d4:	0000                	unimp
 10003d6:	0010                	0x10
 10003d8:	0000                	unimp
 10003da:	0200                	addi	s0,sp,256
 10003dc:	0000                	unimp
 10003de:	0100                	addi	s0,sp,128
 10003e0:	6e696c63          	bltu	s2,t1,1000ad8 <boot_data+0x444>
 10003e4:	4074                	lw	a3,68(s0)
 10003e6:	3034                	fld	fa3,96(s0)
 10003e8:	3030                	fld	fa2,96(s0)
 10003ea:	3030                	fld	fa2,96(s0)
 10003ec:	0030                	addi	a2,sp,8
 10003ee:	0000                	unimp
 10003f0:	0000                	unimp
 10003f2:	0300                	addi	s0,sp,384
 10003f4:	0000                	unimp
 10003f6:	0d00                	addi	s0,sp,656
 10003f8:	0000                	unimp
 10003fa:	1b00                	addi	s0,sp,432
 10003fc:	6972                	flw	fs2,28(sp)
 10003fe:	2c766373          	csrrsi	t1,0x2c7,12
 1000402:	6e696c63          	bltu	s2,t1,1000afa <boot_data+0x466>
 1000406:	3074                	fld	fa3,224(s0)
 1000408:	0000                	unimp
 100040a:	0000                	unimp
 100040c:	0000                	unimp
 100040e:	0300                	addi	s0,sp,384
 1000410:	0000                	unimp
 1000412:	1000                	addi	s0,sp,32
 1000414:	0000                	unimp
 1000416:	c400                	sw	s0,8(s0)
 1000418:	0000                	unimp
 100041a:	0100                	addi	s0,sp,128
 100041c:	0000                	unimp
 100041e:	0300                	addi	s0,sp,384
 1000420:	0000                	unimp
 1000422:	0100                	addi	s0,sp,128
 1000424:	0000                	unimp
 1000426:	0700                	addi	s0,sp,896
 1000428:	0000                	unimp
 100042a:	0300                	addi	s0,sp,384
 100042c:	0000                	unimp
 100042e:	0800                	addi	s0,sp,16
 1000430:	0000                	unimp
 1000432:	d800                	sw	s0,48(s0)
 1000434:	746e6f63          	bltu	t3,t1,1000b92 <boot_data+0x4fe>
 1000438:	6f72                	flw	ft10,28(sp)
 100043a:	006c                	addi	a1,sp,12
 100043c:	0000                	unimp
 100043e:	0300                	addi	s0,sp,384
 1000440:	0000                	unimp
 1000442:	1000                	addi	s0,sp,32
 1000444:	0000                	unimp
 1000446:	4400                	lw	s0,8(s0)
 1000448:	0000                	unimp
 100044a:	0000                	unimp
 100044c:	0004                	0x4
 100044e:	0000                	unimp
 1000450:	0000                	unimp
 1000452:	0000                	unimp
 1000454:	1000                	addi	s0,sp,32
 1000456:	0000                	unimp
 1000458:	0000                	unimp
 100045a:	0200                	addi	s0,sp,256
 100045c:	0000                	unimp
 100045e:	0100                	addi	s0,sp,128
 1000460:	6e69                	lui	t3,0x1a
 1000462:	6574                	flw	fa3,76(a0)
 1000464:	7272                	flw	ft4,60(sp)
 1000466:	7075                	c.lui	zero,0xffffd
 1000468:	2d74                	fld	fa3,216(a0)
 100046a:	746e6f63          	bltu	t3,t1,1000bc8 <boot_data+0x534>
 100046e:	6f72                	flw	ft10,28(sp)
 1000470:	6c6c                	flw	fa1,92(s0)
 1000472:	7265                	lui	tp,0xffff9
 1000474:	6340                	flw	fs0,4(a4)
 1000476:	3030                	fld	fa2,96(s0)
 1000478:	3030                	fld	fa2,96(s0)
 100047a:	3030                	fld	fa2,96(s0)
 100047c:	0000                	unimp
 100047e:	0000                	unimp
 1000480:	0000                	unimp
 1000482:	0300                	addi	s0,sp,384
 1000484:	0000                	unimp
 1000486:	0c00                	addi	s0,sp,528
 1000488:	0000                	unimp
 100048a:	1b00                	addi	s0,sp,432
 100048c:	6972                	flw	fs2,28(sp)
 100048e:	2c766373          	csrrsi	t1,0x2c7,12
 1000492:	6c70                	flw	fa2,92(s0)
 1000494:	6369                	lui	t1,0x1a
 1000496:	0030                	addi	a2,sp,8
 1000498:	0000                	unimp
 100049a:	0300                	addi	s0,sp,384
 100049c:	0000                	unimp
 100049e:	0400                	addi	s0,sp,512
	...
 10004a8:	0000                	unimp
 10004aa:	0300                	addi	s0,sp,384
 10004ac:	0000                	unimp
 10004ae:	0400                	addi	s0,sp,512
 10004b0:	0000                	unimp
 10004b2:	8f00                	0x8f00
 10004b4:	0000                	unimp
 10004b6:	0100                	addi	s0,sp,128
 10004b8:	0000                	unimp
 10004ba:	0300                	addi	s0,sp,384
 10004bc:	0000                	unimp
 10004be:	0000                	unimp
 10004c0:	0000                	unimp
 10004c2:	a000                	fsd	fs0,0(s0)
 10004c4:	0000                	unimp
 10004c6:	0300                	addi	s0,sp,384
 10004c8:	0000                	unimp
 10004ca:	1000                	addi	s0,sp,32
 10004cc:	0000                	unimp
 10004ce:	c400                	sw	s0,8(s0)
 10004d0:	0000                	unimp
 10004d2:	0100                	addi	s0,sp,128
 10004d4:	0000                	unimp
 10004d6:	0b00                	addi	s0,sp,400
 10004d8:	0000                	unimp
 10004da:	0100                	addi	s0,sp,128
 10004dc:	0000                	unimp
 10004de:	0900                	addi	s0,sp,144
 10004e0:	0000                	unimp
 10004e2:	0300                	addi	s0,sp,384
 10004e4:	0000                	unimp
 10004e6:	0400                	addi	s0,sp,512
 10004e8:	0000                	unimp
 10004ea:	0c01                	addi	s8,s8,0
 10004ec:	0000                	unimp
 10004ee:	0700                	addi	s0,sp,896
 10004f0:	0000                	unimp
 10004f2:	0300                	addi	s0,sp,384
 10004f4:	0000                	unimp
 10004f6:	0400                	addi	s0,sp,512
 10004f8:	0000                	unimp
 10004fa:	1f01                	addi	t5,t5,-32
 10004fc:	0000                	unimp
 10004fe:	1e00                	addi	s0,sp,816
 1000500:	0000                	unimp
 1000502:	0300                	addi	s0,sp,384
 1000504:	0000                	unimp
 1000506:	1000                	addi	s0,sp,32
 1000508:	0000                	unimp
 100050a:	4400                	lw	s0,8(s0)
 100050c:	0000                	unimp
 100050e:	0000                	unimp
 1000510:	000c                	0xc
 1000512:	0000                	unimp
 1000514:	0000                	unimp
 1000516:	0000                	unimp
 1000518:	0004                	0x4
 100051a:	0000                	unimp
 100051c:	0000                	unimp
 100051e:	0300                	addi	s0,sp,384
 1000520:	0000                	unimp
 1000522:	0400                	addi	s0,sp,512
 1000524:	0000                	unimp
 1000526:	b500                	fsd	fs0,40(a0)
 1000528:	0000                	unimp
 100052a:	0200                	addi	s0,sp,256
 100052c:	0000                	unimp
 100052e:	0200                	addi	s0,sp,256
 1000530:	0000                	unimp
 1000532:	0200                	addi	s0,sp,256
 1000534:	0000                	unimp
 1000536:	0100                	addi	s0,sp,128
 1000538:	7468                	flw	fa0,108(s0)
 100053a:	6669                	lui	a2,0x1a
 100053c:	0000                	unimp
 100053e:	0000                	unimp
 1000540:	0000                	unimp
 1000542:	0300                	addi	s0,sp,384
 1000544:	0000                	unimp
 1000546:	0a00                	addi	s0,sp,272
 1000548:	0000                	unimp
 100054a:	1b00                	addi	s0,sp,432
 100054c:	6375                	lui	t1,0x1d
 100054e:	2c62                	fld	fs8,24(sp)
 1000550:	7468                	flw	fa0,108(s0)
 1000552:	6669                	lui	a2,0x1a
 1000554:	0030                	addi	a2,sp,8
 1000556:	0000                	unimp
 1000558:	0000                	unimp
 100055a:	0200                	addi	s0,sp,256
 100055c:	0000                	unimp
 100055e:	0200                	addi	s0,sp,256
 1000560:	0000                	unimp
 1000562:	0900                	addi	s0,sp,144
 1000564:	64646123          	0x64646123
 1000568:	6572                	flw	fa0,28(sp)
 100056a:	632d7373          	csrrci	t1,0x632,26
 100056e:	6c65                	lui	s8,0x19
 1000570:	736c                	flw	fa1,100(a4)
 1000572:	2300                	fld	fs0,0(a4)
 1000574:	657a6973          	csrrsi	s2,0x657,20
 1000578:	632d                	lui	t1,0xb
 100057a:	6c65                	lui	s8,0x19
 100057c:	736c                	flw	fa1,100(a4)
 100057e:	6300                	flw	fs0,0(a4)
 1000580:	61706d6f          	jal	s10,1007396 <boot_data+0x6d02>
 1000584:	6974                	flw	fa3,84(a0)
 1000586:	6c62                	flw	fs8,24(sp)
 1000588:	0065                	c.nop	25
 100058a:	6f6d                	lui	t5,0x1b
 100058c:	6564                	flw	fs1,76(a0)
 100058e:	006c                	addi	a1,sp,12
 1000590:	6f647473          	csrrci	s0,0x6f6,8
 1000594:	7475                	lui	s0,0xffffd
 1000596:	702d                	c.lui	zero,0xfffeb
 1000598:	7461                	lui	s0,0xffff8
 100059a:	0068                	addi	a0,sp,12
 100059c:	6564                	flw	fs1,76(a0)
 100059e:	6976                	flw	fs2,92(sp)
 10005a0:	745f6563          	bltu	t5,t0,1000cea <boot_data+0x656>
 10005a4:	7079                	c.lui	zero,0xffffe
 10005a6:	0065                	c.nop	25
 10005a8:	6572                	flw	fa0,28(sp)
 10005aa:	69740067          	jr	1687(s0) # ffff8697 <boot_data+0xfeff8003>
 10005ae:	656d                	lui	a0,0x1b
 10005b0:	6162                	flw	ft2,24(sp)
 10005b2:	662d6573          	csrrsi	a0,0x662,26
 10005b6:	6572                	flw	fa0,28(sp)
 10005b8:	7571                	lui	a0,0xffffc
 10005ba:	6e65                	lui	t3,0x19
 10005bc:	73007963          	bgeu	zero,a6,1000cee <boot_data+0x65a>
 10005c0:	6174                	flw	fa3,68(a0)
 10005c2:	7574                	flw	fa3,108(a0)
 10005c4:	6c630073          	0x6c630073
 10005c8:	2d6b636f          	jal	t1,10b689e <boot_data+0xb620a>
 10005cc:	7266                	flw	ft4,120(sp)
 10005ce:	7165                	addi	sp,sp,-400
 10005d0:	6575                	lui	a0,0x1d
 10005d2:	636e                	flw	ft6,216(sp)
 10005d4:	0079                	c.nop	30
 10005d6:	6972                	flw	fs2,28(sp)
 10005d8:	2c766373          	csrrsi	t1,0x2c7,12
 10005dc:	7369                	lui	t1,0xffffa
 10005de:	0061                	c.nop	24
 10005e0:	6d6d                	lui	s10,0x1b
 10005e2:	2d75                	jal	1000c9e <boot_data+0x60a>
 10005e4:	7974                	flw	fa3,116(a0)
 10005e6:	6570                	flw	fa2,76(a0)
 10005e8:	7400                	flw	fs0,40(s0)
 10005ea:	626c                	flw	fa1,68(a2)
 10005ec:	732d                	lui	t1,0xfffeb
 10005ee:	6c70                	flw	fa2,92(s0)
 10005f0:	7469                	lui	s0,0xffffa
 10005f2:	2300                	fld	fs0,0(a4)
 10005f4:	6e69                	lui	t3,0x1a
 10005f6:	6574                	flw	fa3,76(a0)
 10005f8:	7272                	flw	ft4,60(sp)
 10005fa:	7075                	c.lui	zero,0xffffd
 10005fc:	2d74                	fld	fa3,216(a0)
 10005fe:	6c6c6563          	bltu	s8,t1,1000cc8 <boot_data+0x634>
 1000602:	6e690073          	0x6e690073
 1000606:	6574                	flw	fa3,76(a0)
 1000608:	7272                	flw	ft4,60(sp)
 100060a:	7075                	c.lui	zero,0xffffd
 100060c:	2d74                	fld	fa3,216(a0)
 100060e:	746e6f63          	bltu	t3,t1,1000d6c <boot_data+0x6d8>
 1000612:	6f72                	flw	ft10,28(sp)
 1000614:	6c6c                	flw	fa1,92(s0)
 1000616:	7265                	lui	tp,0xffff9
 1000618:	7000                	flw	fs0,32(s0)
 100061a:	6168                	flw	fa0,68(a0)
 100061c:	646e                	flw	fs0,216(sp)
 100061e:	656c                	flw	fa1,76(a0)
 1000620:	7200                	flw	fs0,32(a2)
 1000622:	6e61                	lui	t3,0x18
 1000624:	00736567          	0x736567
 1000628:	6e69                	lui	t3,0x1a
 100062a:	6574                	flw	fa3,76(a0)
 100062c:	7272                	flw	ft4,60(sp)
 100062e:	7075                	c.lui	zero,0xffffd
 1000630:	7374                	flw	fa3,100(a4)
 1000632:	652d                	lui	a0,0xb
 1000634:	7478                	flw	fa4,108(s0)
 1000636:	6e65                	lui	t3,0x19
 1000638:	6564                	flw	fs1,76(a0)
 100063a:	0064                	addi	s1,sp,12
 100063c:	6572                	flw	fa0,28(sp)
 100063e:	616e2d67          	0x616e2d67
 1000642:	656d                	lui	a0,0x1b
 1000644:	75630073          	0x75630073
 1000648:	7272                	flw	ft4,60(sp)
 100064a:	6e65                	lui	t3,0x19
 100064c:	2d74                	fld	fa3,216(a0)
 100064e:	65657073          	csrci	0x656,10
 1000652:	0064                	addi	s1,sp,12
 1000654:	6e69                	lui	t3,0x1a
 1000656:	6574                	flw	fa3,76(a0)
 1000658:	7272                	flw	ft4,60(sp)
 100065a:	7075                	c.lui	zero,0xffffd
 100065c:	2d74                	fld	fa3,216(a0)
 100065e:	6170                	flw	fa2,68(a0)
 1000660:	6572                	flw	fa0,28(sp)
 1000662:	746e                	flw	fs0,248(sp)
 1000664:	6900                	flw	fs0,16(a0)
 1000666:	746e                	flw	fs0,248(sp)
 1000668:	7265                	lui	tp,0xffff9
 100066a:	7572                	flw	fa0,60(sp)
 100066c:	7470                	flw	fa2,108(s0)
 100066e:	69720073          	0x69720073
 1000672:	2c766373          	csrrsi	t1,0x2c7,12
 1000676:	616d                	addi	sp,sp,240
 1000678:	2d78                	fld	fa4,216(a0)
 100067a:	7270                	flw	fa2,100(a2)
 100067c:	6f69                	lui	t5,0x1a
 100067e:	6972                	flw	fs2,28(sp)
 1000680:	7974                	flw	fa3,116(a0)
 1000682:	7200                	flw	fs0,32(a2)
 1000684:	7369                	lui	t1,0xffffa
 1000686:	6e2c7663          	bgeu	s8,sp,1000d72 <boot_data+0x6de>
 100068a:	6564                	flw	fs1,76(a0)
 100068c:	0076                	c.slli	zero,0x1d
	...

Disassembly of section .bootdata:

01000690 <entry_addr>:
 1000690:	002c                	addi	a1,sp,8
 1000692:	0100                	addi	s0,sp,128
